target datalayout = "e-m:e-p270:32:32-p271:32:32-p272:64:64-i64:64-i128:128-f80:128-n8:16:32:64-S128"
target triple = "x86_64-pc-linux-gnu"

; Function Attrs: nounwind uwtable
define hidden i32 @mbedtls_psa_ffdh_import_key(ptr noundef %0, ptr noundef %1, i64 noundef %2, ptr noundef %3, i64 noundef %4, ptr noundef %5, ptr noundef %6) #0 {
  %8 = alloca i32, align 4
  %9 = alloca ptr, align 8
  %10 = alloca ptr, align 8
  %11 = alloca i64, align 8
  %12 = alloca ptr, align 8
  %13 = alloca i64, align 8
  %14 = alloca ptr, align 8
  %15 = alloca ptr, align 8
  store ptr %0, ptr %9, align 8, !tbaa !3
  store ptr %1, ptr %10, align 8, !tbaa !8
  store i64 %2, ptr %11, align 8, !tbaa !10
  store ptr %3, ptr %12, align 8, !tbaa !8
  store i64 %4, ptr %13, align 8, !tbaa !10
  store ptr %5, ptr %14, align 8, !tbaa !12
  store ptr %6, ptr %15, align 8, !tbaa !12
  %16 = load i64, ptr %13, align 8, !tbaa !10
  %17 = load i64, ptr %11, align 8, !tbaa !10
  %18 = icmp ult i64 %16, %17
  br i1 %18, label %19, label %20

19:                                               ; preds = %7
  store i32 -138, ptr %8, align 4
  br label %29

20:                                               ; preds = %7
  %21 = load ptr, ptr %12, align 8, !tbaa !8
  %22 = load ptr, ptr %10, align 8, !tbaa !8
  %23 = load i64, ptr %11, align 8, !tbaa !10
  call void @llvm.memcpy.p0.p0.i64(ptr align 1 %21, ptr align 1 %22, i64 %23, i1 false)
  %24 = load i64, ptr %11, align 8, !tbaa !10
  %25 = load ptr, ptr %14, align 8, !tbaa !12
  store i64 %24, ptr %25, align 8, !tbaa !10
  %26 = load i64, ptr %11, align 8, !tbaa !10
  %27 = mul i64 %26, 8
  %28 = load ptr, ptr %15, align 8, !tbaa !12
  store i64 %27, ptr %28, align 8, !tbaa !10
  store i32 0, ptr %8, align 4
  br label %29

29:                                               ; preds = %20, %19
  %30 = load i32, ptr %8, align 4
  ret i32 %30
}