; Function Attrs: mustprogress nofree norecurse nosync nounwind willreturn memory(argmem: readwrite) uwtable
define hidden range(i32 -138, 1) i32 @mbedtls_psa_ffdh_import_key(ptr noundef readnone captures(none) %0, ptr noundef readonly captures(none) %1, i64 noundef %2, ptr noundef writeonly captures(none) %3, i64 noundef %4, ptr noundef writeonly captures(none) %5, ptr noundef writeonly captures(none) %6) local_unnamed_addr #5 {
  %8 = icmp ult i64 %4, %2
  br i1 %8, label %11, label %9

9:                                                ; preds = %7
  tail call void @llvm.memcpy.p0.p0.i64(ptr align 1 %3, ptr align 1 %1, i64 %2, i1 false)
  store i64 %2, ptr %5, align 8, !tbaa !10
  %10 = shl i64 %2, 3
  store i64 %10, ptr %6, align 8, !tbaa !10
  br label %11

11:                                               ; preds = %7, %9
  %.0 = phi i32 [ 0, %9 ], [ -138, %7 ]
  ret i32 %.0
}